target datalayout = "e-m:e-p270:32:32-p271:32:32-p272:64:64-i64:64-i128:128-f80:128-n8:16:32:64-S128"
target triple = "x86_64-pc-linux-gnu"

%struct.gmx_trr_header_t = type { i8, i32, i32, i32, i32, i32, i32, i32, i32, i32, i32, i32, i64, i32, float, float, i32 }

@.str.1 = private unnamed_addr constant [122 x i8] c"generated/home/dtcxzyw/WorkSpace/Projects/compilers/llvm-opt-benchmark/bench/gromacs/gromacs/src/gromacs/fileio/trrio.cpp\00", align 1
@.str.38 = private unnamed_addr constant [4 x i8] c"box\00", align 1
@.str.39 = private unnamed_addr constant [3 x i8] c"pv\00", align 1
@.str.40 = private unnamed_addr constant [2 x i8] c"x\00", align 1
@.str.41 = private unnamed_addr constant [2 x i8] c"v\00", align 1
@.str.42 = private unnamed_addr constant [2 x i8] c"f\00", align 1

; Function Attrs: mustprogress uwtable
define internal noundef zeroext i1 @_ZL17do_trr_frame_dataP8t_fileioP16gmx_trr_header_tPA3_fS4_S4_S4_(ptr noundef %0, ptr noundef %1, ptr noundef %2, ptr noundef %3, ptr noundef %4, ptr noundef %5) #0 {
  %7 = alloca ptr, align 8
  %8 = alloca ptr, align 8
  %9 = alloca ptr, align 8
  %10 = alloca ptr, align 8
  %11 = alloca ptr, align 8
  %12 = alloca ptr, align 8
  %13 = alloca [3 x [3 x float]], align 16
  %14 = alloca i8, align 1
  store ptr %0, ptr %7, align 8, !tbaa !11
  store ptr %1, ptr %8, align 8, !tbaa !9
  store ptr %2, ptr %9, align 8, !tbaa !90
  store ptr %3, ptr %10, align 8, !tbaa !90
  store ptr %4, ptr %11, align 8, !tbaa !90
  store ptr %5, ptr %12, align 8, !tbaa !90
  call void @llvm.lifetime.start.p0(i64 36, ptr %13) #12
  call void @llvm.lifetime.start.p0(i64 1, ptr %14) #12
  store i8 1, ptr %14, align 1, !tbaa !15
  %15 = load ptr, ptr %8, align 8, !tbaa !9
  %16 = getelementptr inbounds nuw %struct.gmx_trr_header_t, ptr %15, i32 0, i32 3
  %17 = load i32, ptr %16, align 4, !tbaa !36
  %18 = icmp ne i32 %17, 0
  br i1 %18, label %19, label %29

19:                                               ; preds = %6
  %20 = load i8, ptr %14, align 1, !tbaa !15, !range !21, !noundef !22
  %21 = trunc i8 %20 to i1
  br i1 %21, label %22, label %26

22:                                               ; preds = %19
  %23 = load ptr, ptr %7, align 8, !tbaa !11
  %24 = load ptr, ptr %9, align 8, !tbaa !90
  %25 = call noundef zeroext i1 @_Z17gmx_fio_ndoe_rvecP8t_fileioPA3_fiPKcS4_i(ptr noundef %23, ptr noundef %24, i32 noundef 3, ptr noundef @.str.38, ptr noundef @.str.1, i32 noundef 180)
  br label %26

26:                                               ; preds = %22, %19
  %27 = phi i1 [ false, %19 ], [ %25, %22 ]
  %28 = zext i1 %27 to i8
  store i8 %28, ptr %14, align 1, !tbaa !15
  br label %29

29:                                               ; preds = %26, %6
  %30 = load ptr, ptr %8, align 8, !tbaa !9
  %31 = getelementptr inbounds nuw %struct.gmx_trr_header_t, ptr %30, i32 0, i32 4
  %32 = load i32, ptr %31, align 8, !tbaa !104
  %33 = icmp ne i32 %32, 0
  br i1 %33, label %34, label %44

34:                                               ; preds = %29
  %35 = load i8, ptr %14, align 1, !tbaa !15, !range !21, !noundef !22
  %36 = trunc i8 %35 to i1
  br i1 %36, label %37, label %41

37:                                               ; preds = %34
  %38 = load ptr, ptr %7, align 8, !tbaa !11
  %39 = getelementptr inbounds [3 x [3 x float]], ptr %13, i64 0, i64 0
  %40 = call noundef zeroext i1 @_Z17gmx_fio_ndoe_rvecP8t_fileioPA3_fiPKcS4_i(ptr noundef %38, ptr noundef %39, i32 noundef 3, ptr noundef @.str.39, ptr noundef @.str.1, i32 noundef 184)
  br label %41

41:                                               ; preds = %37, %34
  %42 = phi i1 [ false, %34 ], [ %40, %37 ]
  %43 = zext i1 %42 to i8
  store i8 %43, ptr %14, align 1, !tbaa !15
  br label %44

44:                                               ; preds = %41, %29
  %45 = load ptr, ptr %8, align 8, !tbaa !9
  %46 = getelementptr inbounds nuw %struct.gmx_trr_header_t, ptr %45, i32 0, i32 5
  %47 = load i32, ptr %46, align 4, !tbaa !105
  %48 = icmp ne i32 %47, 0
  br i1 %48, label %49, label %59

49:                                               ; preds = %44
  %50 = load i8, ptr %14, align 1, !tbaa !15, !range !21, !noundef !22
  %51 = trunc i8 %50 to i1
  br i1 %51, label %52, label %56

52:                                               ; preds = %49
  %53 = load ptr, ptr %7, align 8, !tbaa !11
  %54 = getelementptr inbounds [3 x [3 x float]], ptr %13, i64 0, i64 0
  %55 = call noundef zeroext i1 @_Z17gmx_fio_ndoe_rvecP8t_fileioPA3_fiPKcS4_i(ptr noundef %53, ptr noundef %54, i32 noundef 3, ptr noundef @.str.39, ptr noundef @.str.1, i32 noundef 188)
  br label %56

56:                                               ; preds = %52, %49
  %57 = phi i1 [ false, %49 ], [ %55, %52 ]
  %58 = zext i1 %57 to i8
  store i8 %58, ptr %14, align 1, !tbaa !15
  br label %59

59:                                               ; preds = %56, %44
  %60 = load ptr, ptr %8, align 8, !tbaa !9
  %61 = getelementptr inbounds nuw %struct.gmx_trr_header_t, ptr %60, i32 0, i32 8
  %62 = load i32, ptr %61, align 8, !tbaa !37
  %63 = icmp ne i32 %62, 0
  br i1 %63, label %64, label %77

64:                                               ; preds = %59
  %65 = load i8, ptr %14, align 1, !tbaa !15, !range !21, !noundef !22
  %66 = trunc i8 %65 to i1
  br i1 %66, label %67, label %74

67:                                               ; preds = %64
  %68 = load ptr, ptr %7, align 8, !tbaa !11
  %69 = load ptr, ptr %10, align 8, !tbaa !90
  %70 = load ptr, ptr %8, align 8, !tbaa !9
  %71 = getelementptr inbounds nuw %struct.gmx_trr_header_t, ptr %70, i32 0, i32 11
  %72 = load i32, ptr %71, align 4, !tbaa !38
  %73 = call noundef zeroext i1 @_Z17gmx_fio_ndoe_rvecP8t_fileioPA3_fiPKcS4_i(ptr noundef %68, ptr noundef %69, i32 noundef %72, ptr noundef @.str.40, ptr noundef @.str.1, i32 noundef 192)
  br label %74

74:                                               ; preds = %67, %64
  %75 = phi i1 [ false, %64 ], [ %73, %67 ]
  %76 = zext i1 %75 to i8
  store i8 %76, ptr %14, align 1, !tbaa !15
  br label %77

77:                                               ; preds = %74, %59
  %78 = load ptr, ptr %8, align 8, !tbaa !9
  %79 = getelementptr inbounds nuw %struct.gmx_trr_header_t, ptr %78, i32 0, i32 9
  %80 = load i32, ptr %79, align 4, !tbaa !39
  %81 = icmp ne i32 %80, 0
  br i1 %81, label %82, label %95

82:                                               ; preds = %77
  %83 = load i8, ptr %14, align 1, !tbaa !15, !range !21, !noundef !22
  %84 = trunc i8 %83 to i1
  br i1 %84, label %85, label %92

85:                                               ; preds = %82
  %86 = load ptr, ptr %7, align 8, !tbaa !11
  %87 = load ptr, ptr %11, align 8, !tbaa !90
  %88 = load ptr, ptr %8, align 8, !tbaa !9
  %89 = getelementptr inbounds nuw %struct.gmx_trr_header_t, ptr %88, i32 0, i32 11
  %90 = load i32, ptr %89, align 4, !tbaa !38
  %91 = call noundef zeroext i1 @_Z17gmx_fio_ndoe_rvecP8t_fileioPA3_fiPKcS4_i(ptr noundef %86, ptr noundef %87, i32 noundef %90, ptr noundef @.str.41, ptr noundef @.str.1, i32 noundef 196)
  br label %92

92:                                               ; preds = %85, %82
  %93 = phi i1 [ false, %82 ], [ %91, %85 ]
  %94 = zext i1 %93 to i8
  store i8 %94, ptr %14, align 1, !tbaa !15
  br label %95

95:                                               ; preds = %92, %77
  %96 = load ptr, ptr %8, align 8, !tbaa !9
  %97 = getelementptr inbounds nuw %struct.gmx_trr_header_t, ptr %96, i32 0, i32 10
  %98 = load i32, ptr %97, align 8, !tbaa !40
  %99 = icmp ne i32 %98, 0
  br i1 %99, label %100, label %113

100:                                              ; preds = %95
  %101 = load i8, ptr %14, align 1, !tbaa !15, !range !21, !noundef !22
  %102 = trunc i8 %101 to i1
  br i1 %102, label %103, label %110

103:                                              ; preds = %100
  %104 = load ptr, ptr %7, align 8, !tbaa !11
  %105 = load ptr, ptr %12, align 8, !tbaa !90
  %106 = load ptr, ptr %8, align 8, !tbaa !9
  %107 = getelementptr inbounds nuw %struct.gmx_trr_header_t, ptr %106, i32 0, i32 11
  %108 = load i32, ptr %107, align 4, !tbaa !38
  %109 = call noundef zeroext i1 @_Z17gmx_fio_ndoe_rvecP8t_fileioPA3_fiPKcS4_i(ptr noundef %104, ptr noundef %105, i32 noundef %108, ptr noundef @.str.42, ptr noundef @.str.1, i32 noundef 200)
  br label %110

110:                                              ; preds = %103, %100
  %111 = phi i1 [ false, %100 ], [ %109, %103 ]
  %112 = zext i1 %111 to i8
  store i8 %112, ptr %14, align 1, !tbaa !15
  br label %113

113:                                              ; preds = %110, %95
  %114 = load i8, ptr %14, align 1, !tbaa !15, !range !21, !noundef !22
  %115 = trunc i8 %114 to i1
  call void @llvm.lifetime.end.p0(i64 1, ptr %14) #12
  call void @llvm.lifetime.end.p0(i64 36, ptr %13) #12
  ret i1 %115
}