; Function Attrs: mustprogress uwtable
define internal fastcc noundef zeroext i1 @_ZL17do_trr_frame_dataP8t_fileioP16gmx_trr_header_tPA3_fS4_S4_S4_(ptr noundef %0, ptr noundef readonly captures(none) %1, ptr noundef %2, ptr noundef %3, ptr noundef %4, ptr noundef %5) unnamed_addr #0 {
  %7 = alloca [3 x [3 x float]], align 16
  call void @llvm.lifetime.start.p0(i64 36, ptr nonnull %7) #13
  %8 = getelementptr inbounds nuw i8, ptr %1, i64 12
  %9 = load i32, ptr %8, align 4, !tbaa !33
  %.not = icmp eq i32 %9, 0
  br i1 %.not, label %13, label %10

10:                                               ; preds = %6
  %11 = tail call noundef zeroext i1 @_Z17gmx_fio_ndoe_rvecP8t_fileioPA3_fiPKcS4_i(ptr noundef %0, ptr noundef %2, i32 noundef 3, ptr noundef nonnull @.str.38, ptr noundef nonnull @.str.1, i32 noundef 180)
  %12 = zext i1 %11 to i8
  br label %13

13:                                               ; preds = %10, %6
  %.0 = phi i8 [ %12, %10 ], [ 1, %6 ]
  %14 = getelementptr inbounds nuw i8, ptr %1, i64 16
  %15 = load i32, ptr %14, align 8, !tbaa !46
  %.not25 = icmp eq i32 %15, 0
  br i1 %.not25, label %21, label %16

16:                                               ; preds = %13
  %17 = trunc nuw i8 %.0 to i1
  br i1 %17, label %18, label %21

18:                                               ; preds = %16
  %19 = call noundef zeroext i1 @_Z17gmx_fio_ndoe_rvecP8t_fileioPA3_fiPKcS4_i(ptr noundef %0, ptr noundef nonnull %7, i32 noundef 3, ptr noundef nonnull @.str.39, ptr noundef nonnull @.str.1, i32 noundef 184)
  %20 = zext i1 %19 to i8
  br label %21

21:                                               ; preds = %16, %18, %13
  %.1 = phi i8 [ %.0, %13 ], [ 0, %16 ], [ %20, %18 ]
  %22 = getelementptr inbounds nuw i8, ptr %1, i64 20
  %23 = load i32, ptr %22, align 4, !tbaa !47
  %.not26 = icmp eq i32 %23, 0
  br i1 %.not26, label %29, label %24

24:                                               ; preds = %21
  %25 = trunc nuw i8 %.1 to i1
  br i1 %25, label %26, label %29

26:                                               ; preds = %24
  %27 = call noundef zeroext i1 @_Z17gmx_fio_ndoe_rvecP8t_fileioPA3_fiPKcS4_i(ptr noundef %0, ptr noundef nonnull %7, i32 noundef 3, ptr noundef nonnull @.str.39, ptr noundef nonnull @.str.1, i32 noundef 188)
  %28 = zext i1 %27 to i8
  br label %29

29:                                               ; preds = %24, %26, %21
  %.2 = phi i8 [ %.1, %21 ], [ 0, %24 ], [ %28, %26 ]
  %30 = getelementptr inbounds nuw i8, ptr %1, i64 32
  %31 = load i32, ptr %30, align 8, !tbaa !34
  %.not27 = icmp eq i32 %31, 0
  br i1 %.not27, label %39, label %32

32:                                               ; preds = %29
  %33 = trunc nuw i8 %.2 to i1
  br i1 %33, label %34, label %39

34:                                               ; preds = %32
  %35 = getelementptr inbounds nuw i8, ptr %1, i64 44
  %36 = load i32, ptr %35, align 4, !tbaa !35
  %37 = call noundef zeroext i1 @_Z17gmx_fio_ndoe_rvecP8t_fileioPA3_fiPKcS4_i(ptr noundef %0, ptr noundef %3, i32 noundef %36, ptr noundef nonnull @.str.40, ptr noundef nonnull @.str.1, i32 noundef 192)
  %38 = zext i1 %37 to i8
  br label %39

39:                                               ; preds = %32, %34, %29
  %.3 = phi i8 [ %.2, %29 ], [ 0, %32 ], [ %38, %34 ]
  %40 = getelementptr inbounds nuw i8, ptr %1, i64 36
  %41 = load i32, ptr %40, align 4, !tbaa !36
  %.not28 = icmp eq i32 %41, 0
  br i1 %.not28, label %49, label %42

42:                                               ; preds = %39
  %43 = trunc nuw i8 %.3 to i1
  br i1 %43, label %44, label %49

44:                                               ; preds = %42
  %45 = getelementptr inbounds nuw i8, ptr %1, i64 44
  %46 = load i32, ptr %45, align 4, !tbaa !35
  %47 = call noundef zeroext i1 @_Z17gmx_fio_ndoe_rvecP8t_fileioPA3_fiPKcS4_i(ptr noundef %0, ptr noundef %4, i32 noundef %46, ptr noundef nonnull @.str.41, ptr noundef nonnull @.str.1, i32 noundef 196)
  %48 = zext i1 %47 to i8
  br label %49

49:                                               ; preds = %42, %44, %39
  %.4 = phi i8 [ %.3, %39 ], [ 0, %42 ], [ %48, %44 ]
  %50 = getelementptr inbounds nuw i8, ptr %1, i64 40
  %51 = load i32, ptr %50, align 8, !tbaa !37
  %.not29 = icmp eq i32 %51, 0
  br i1 %.not29, label %59, label %52

52:                                               ; preds = %49
  %53 = trunc nuw i8 %.4 to i1
  br i1 %53, label %54, label %59

54:                                               ; preds = %52
  %55 = getelementptr inbounds nuw i8, ptr %1, i64 44
  %56 = load i32, ptr %55, align 4, !tbaa !35
  %57 = call noundef zeroext i1 @_Z17gmx_fio_ndoe_rvecP8t_fileioPA3_fiPKcS4_i(ptr noundef %0, ptr noundef %5, i32 noundef %56, ptr noundef nonnull @.str.42, ptr noundef nonnull @.str.1, i32 noundef 200)
  %58 = zext i1 %57 to i8
  br label %59

59:                                               ; preds = %52, %54, %49
  %.5 = phi i8 [ %.4, %49 ], [ 0, %52 ], [ %58, %54 ]
  %60 = trunc nuw i8 %.5 to i1
  call void @llvm.lifetime.end.p0(i64 36, ptr nonnull %7) #13
  ret i1 %60
}